target datalayout = "e-m:e-p270:32:32-p271:32:32-p272:64:64-i64:64-i128:128-f80:128-n8:16:32:64-S128"
target triple = "x86_64-pc-linux-gnu"

%"class.icu_77::UnicodeString" = type { %"class.icu_77::Replaceable", %"union.icu_77::UnicodeString::StackBufferOrFields" }
%"class.icu_77::Replaceable" = type { %"class.icu_77::UObject" }
%"class.icu_77::UObject" = type { ptr }
%"union.icu_77::UnicodeString::StackBufferOrFields" = type { %struct.anon.0, [32 x i8] }
%struct.anon.0 = type { i16, i32, i32, ptr }
%"class.icu_77::RuleBasedNumberFormat" = type { %"class.icu_77::NumberFormat.base", ptr, ptr, i32, ptr, %"class.icu_77::Locale", ptr, ptr, ptr, ptr, i32, i8, ptr, ptr, %"class.icu_77::UnicodeString", i8, i8, i8, ptr }
%"class.icu_77::NumberFormat.base" = type <{ %"class.icu_77::Format", i8, [3 x i8], i32, i32, i32, i32, i8, i8, [4 x i16], [2 x i8], i32 }>
%"class.icu_77::Format" = type { %"class.icu_77::UObject", ptr, ptr }
%"class.icu_77::Locale" = type <{ %"class.icu_77::UObject", [12 x i8], [6 x i8], [4 x i8], [2 x i8], i32, [4 x i8], ptr, [157 x i8], [3 x i8], ptr, i8, [7 x i8] }>
%struct.anon = type { i16, [27 x i16] }
%"class.icu_77::NFRuleSet" = type <{ [8 x i8], %"class.icu_77::UnicodeString", %"class.icu_77::NFRuleList", [6 x ptr], ptr, %"class.icu_77::NFRuleList", i8, i8, i8, [5 x i8] }>
%"class.icu_77::NFRuleList" = type { ptr, i32, i32 }

@_ZTVN6icu_777UObjectE = available_externally unnamed_addr constant { [5 x ptr] } { [5 x ptr] [ptr null, ptr @_ZTIN6icu_777UObjectE, ptr @_ZN6icu_777UObjectD1Ev, ptr @_ZN6icu_777UObjectD0Ev, ptr @_ZNK6icu_777UObject17getDynamicClassIDEv] }, align 8

; Function Attrs: inlinehint mustprogress nounwind uwtable
define linkonce_odr void @_ZN6icu_777UObjectC2Ev(ptr noundef nonnull align 8 dereferenceable(8) %0) unnamed_addr #4 comdat align 2 {
  %2 = alloca ptr, align 8
  store ptr %0, ptr %2, align 8, !tbaa !225
  %3 = load ptr, ptr %2, align 8
  store ptr getelementptr inbounds inrange(-16, 24) ({ [5 x ptr] }, ptr @_ZTVN6icu_777UObjectE, i32 0, i32 0, i32 2), ptr %3, align 8, !tbaa !10
  ret void
}

; Function Attrs: inlinehint mustprogress uwtable
define linkonce_odr noundef nonnull align 8 dereferenceable(64) ptr @_ZN6icu_7713UnicodeString5setToERKS0_(ptr noundef nonnull align 8 dereferenceable(64) %0, ptr noundef nonnull align 8 dereferenceable(64) %1) #6 comdat align 2 {
  %3 = alloca ptr, align 8
  %4 = alloca ptr, align 8
  store ptr %0, ptr %3, align 8, !tbaa !76
  store ptr %1, ptr %4, align 8, !tbaa !76
  %5 = load ptr, ptr %3, align 8
  %6 = load ptr, ptr %4, align 8, !tbaa !76
  %7 = call noundef nonnull align 8 dereferenceable(64) ptr @_ZN6icu_7713UnicodeString8copyFromERKS0_a(ptr noundef nonnull align 8 dereferenceable(64) %5, ptr noundef nonnull align 8 dereferenceable(64) %6, i8 noundef signext 0)
  ret ptr %7
}

; Function Attrs: inlinehint mustprogress nounwind uwtable
define linkonce_odr void @_ZN6icu_7711ReplaceableC2Ev(ptr noundef nonnull align 8 dereferenceable(8) %0) unnamed_addr #4 comdat align 2 {
  %2 = alloca ptr, align 8
  store ptr %0, ptr %2, align 8, !tbaa !223
  %3 = load ptr, ptr %2, align 8
  call void @_ZN6icu_777UObjectC2Ev(ptr noundef nonnull align 8 dereferenceable(8) %3) #14
  store ptr getelementptr inbounds inrange(-16, 88) ({ [13 x ptr] }, ptr @_ZTVN6icu_7711ReplaceableE, i32 0, i32 0, i32 2), ptr %3, align 8, !tbaa !10
  ret void
}

; Function Attrs: mustprogress uwtable
define linkonce_odr void @_ZNK6icu_779NFRuleSet7getNameERNS_13UnicodeStringE(ptr noundef nonnull align 8 dereferenceable(163) %0, ptr noundef nonnull align 8 dereferenceable(64) %1) #2 comdat align 2 {
  %3 = alloca ptr, align 8
  %4 = alloca ptr, align 8
  store ptr %0, ptr %3, align 8, !tbaa !121
  store ptr %1, ptr %4, align 8, !tbaa !76
  %5 = load ptr, ptr %3, align 8
  %6 = load ptr, ptr %4, align 8, !tbaa !76
  %7 = getelementptr inbounds nuw %"class.icu_77::NFRuleSet", ptr %5, i32 0, i32 1
  %8 = call noundef nonnull align 8 dereferenceable(64) ptr @_ZN6icu_7713UnicodeString5setToERKS0_(ptr noundef nonnull align 8 dereferenceable(64) %6, ptr noundef nonnull align 8 dereferenceable(64) %7)
  ret void
}

; Function Attrs: mustprogress nounwind uwtable
define linkonce_odr noundef signext i8 @_ZNK6icu_779NFRuleSet8isPublicEv(ptr noundef nonnull align 8 dereferenceable(163) %0) #0 comdat align 2 {
  %2 = alloca ptr, align 8
  store ptr %0, ptr %2, align 8, !tbaa !121
  %3 = load ptr, ptr %2, align 8
  %4 = getelementptr inbounds nuw %"class.icu_77::NFRuleSet", ptr %3, i32 0, i32 7
  %5 = load i8, ptr %4, align 1, !tbaa !151
  ret i8 %5
}

; Function Attrs: inlinehint mustprogress uwtable
define linkonce_odr void @_ZN6icu_7713UnicodeStringC2Ev(ptr noundef nonnull align 8 dereferenceable(64) %0) unnamed_addr #6 comdat align 2 {
  %2 = alloca ptr, align 8
  store ptr %0, ptr %2, align 8, !tbaa !76
  %3 = load ptr, ptr %2, align 8
  call void @_ZN6icu_7711ReplaceableC2Ev(ptr noundef nonnull align 8 dereferenceable(8) %3)
  store ptr getelementptr inbounds inrange(-16, 88) ({ [13 x ptr] }, ptr @_ZTVN6icu_7713UnicodeStringE, i32 0, i32 0, i32 2), ptr %3, align 8, !tbaa !10
  %4 = getelementptr inbounds nuw %"class.icu_77::UnicodeString", ptr %3, i32 0, i32 1
  %5 = getelementptr inbounds nuw %struct.anon, ptr %4, i32 0, i32 0
  store i16 2, ptr %5, align 8, !tbaa !39
  ret void
}

; Function Attrs: mustprogress uwtable
define void @_ZNK6icu_7721RuleBasedNumberFormat21getDefaultRuleSetNameEv(ptr dead_on_unwind noalias writable sret(%"class.icu_77::UnicodeString") align 8 %0, ptr noundef nonnull align 8 dereferenceable(456) %1) unnamed_addr #2 align 2 personality ptr @__gxx_personality_v0 {
  %3 = alloca ptr, align 8
  %4 = alloca ptr, align 8
  %5 = alloca i1, align 1
  %6 = alloca ptr, align 8
  %7 = alloca i32, align 4
  store ptr %0, ptr %3, align 8
  store ptr %1, ptr %4, align 8, !tbaa !3
  %8 = load ptr, ptr %4, align 8
  store i1 false, ptr %5, align 1
  call void @_ZN6icu_7713UnicodeStringC2Ev(ptr noundef nonnull align 8 dereferenceable(64) %0)
  %9 = getelementptr inbounds nuw %"class.icu_77::RuleBasedNumberFormat", ptr %8, i32 0, i32 4
  %10 = load ptr, ptr %9, align 8, !tbaa !106
  %11 = icmp ne ptr %10, null
  br i1 %11, label %12, label %26

12:                                               ; preds = %2
  %13 = getelementptr inbounds nuw %"class.icu_77::RuleBasedNumberFormat", ptr %8, i32 0, i32 4
  %14 = load ptr, ptr %13, align 8, !tbaa !106
  %15 = invoke noundef signext i8 @_ZNK6icu_779NFRuleSet8isPublicEv(ptr noundef nonnull align 8 dereferenceable(163) %14)
          to label %16 unwind label %22

16:                                               ; preds = %12
  %17 = icmp ne i8 %15, 0
  br i1 %17, label %18, label %26

18:                                               ; preds = %16
  %19 = getelementptr inbounds nuw %"class.icu_77::RuleBasedNumberFormat", ptr %8, i32 0, i32 4
  %20 = load ptr, ptr %19, align 8, !tbaa !106
  invoke void @_ZNK6icu_779NFRuleSet7getNameERNS_13UnicodeStringE(ptr noundef nonnull align 8 dereferenceable(163) %20, ptr noundef nonnull align 8 dereferenceable(64) %0)
          to label %21 unwind label %22

21:                                               ; preds = %18
  br label %28

22:                                               ; preds = %26, %18, %12
  %23 = landingpad { ptr, i32 }
          cleanup
  %24 = extractvalue { ptr, i32 } %23, 0
  store ptr %24, ptr %6, align 8
  %25 = extractvalue { ptr, i32 } %23, 1
  store i32 %25, ptr %7, align 4
  call void @_ZN6icu_7713UnicodeStringD1Ev(ptr noundef nonnull align 8 dereferenceable(64) %0) #14
  br label %32

26:                                               ; preds = %16, %2
  invoke void @_ZN6icu_7713UnicodeString10setToBogusEv(ptr noundef nonnull align 8 dereferenceable(64) %0)
          to label %27 unwind label %22

27:                                               ; preds = %26
  br label %28

28:                                               ; preds = %27, %21
  store i1 true, ptr %5, align 1
  %29 = load i1, ptr %5, align 1
  br i1 %29, label %31, label %30

30:                                               ; preds = %28
  call void @_ZN6icu_7713UnicodeStringD1Ev(ptr noundef nonnull align 8 dereferenceable(64) %0) #14
  br label %31

31:                                               ; preds = %30, %28
  ret void

32:                                               ; preds = %22
  %33 = load ptr, ptr %6, align 8
  %34 = load i32, ptr %7, align 4
  %35 = insertvalue { ptr, i32 } poison, ptr %33, 0
  %36 = insertvalue { ptr, i32 } %35, i32 %34, 1
  resume { ptr, i32 } %36
}