; Function Attrs: mustprogress uwtable
define void @_ZNK6icu_7721RuleBasedNumberFormat21getDefaultRuleSetNameEv(ptr dead_on_unwind noalias writable sret(%"class.icu_77::UnicodeString") align 8 initializes((0, 10)) %0, ptr noundef nonnull readonly align 8 captures(none) dereferenceable(456) %1) unnamed_addr #3 align 2 personality ptr @__gxx_personality_v0 {
  store ptr getelementptr inbounds nuw inrange(-16, 88) (i8, ptr @_ZTVN6icu_7713UnicodeStringE, i64 16), ptr %0, align 8, !tbaa !3
  %3 = getelementptr inbounds nuw i8, ptr %0, i64 8
  store i16 2, ptr %3, align 8, !tbaa !55
  %4 = getelementptr inbounds nuw i8, ptr %1, i64 88
  %5 = load ptr, ptr %4, align 8, !tbaa !64
  %.not = icmp eq ptr %5, null
  br i1 %.not, label %14, label %6

6:                                                ; preds = %2
  %7 = getelementptr inbounds nuw i8, ptr %5, i64 161
  %8 = load i8, ptr %7, align 1, !tbaa !118
  %.not3 = icmp eq i8 %8, 0
  br i1 %.not3, label %14, label %9

9:                                                ; preds = %6
  %10 = getelementptr inbounds nuw i8, ptr %5, i64 8
  %11 = invoke noundef nonnull align 8 dereferenceable(64) ptr @_ZN6icu_7713UnicodeString8copyFromERKS0_a(ptr noundef nonnull align 8 dereferenceable(64) %0, ptr noundef nonnull align 8 dereferenceable(64) %10, i8 noundef signext 0)
          to label %_ZNK6icu_779NFRuleSet7getNameERNS_13UnicodeStringE.exit unwind label %12

12:                                               ; preds = %9, %14
  %13 = landingpad { ptr, i32 }
          cleanup
  tail call void @_ZN6icu_7713UnicodeStringD1Ev(ptr noundef nonnull align 8 dereferenceable(64) %0) #21
  resume { ptr, i32 } %13

14:                                               ; preds = %6, %2
  invoke void @_ZN6icu_7713UnicodeString10setToBogusEv(ptr noundef nonnull align 8 dereferenceable(64) %0)
          to label %_ZNK6icu_779NFRuleSet7getNameERNS_13UnicodeStringE.exit unwind label %12

_ZNK6icu_779NFRuleSet7getNameERNS_13UnicodeStringE.exit: ; preds = %9, %14
  ret void
}